; Function Attrs: mustprogress nofree norecurse nosync nounwind memory(read, argmem: readwrite, inaccessiblemem: none) uwtable
define void @_ZNK5Ipopt7PColumn18GetSchurMatrixRowsEPKSt6vectorIiSaIiEEPd(ptr noundef nonnull readonly align 8 captures(none) dereferenceable(24) %0, ptr noundef readonly captures(none) %1, ptr noundef writeonly captures(none) %2) unnamed_addr #11 align 2 {
  %4 = getelementptr inbounds nuw i8, ptr %1, i64 8
  %5 = load ptr, ptr %4, align 8, !tbaa !202
  %6 = load ptr, ptr %1, align 8, !tbaa !204
  %.not = icmp eq ptr %5, %6
  br i1 %.not, label %._crit_edge, label %.lr.ph

.lr.ph:                                           ; preds = %3
  %7 = ptrtoint ptr %5 to i64
  %8 = ptrtoint ptr %6 to i64
  %9 = sub i64 %7, %8
  %10 = ashr exact i64 %9, 2
  %11 = getelementptr inbounds nuw i8, ptr %0, i64 16
  %12 = load ptr, ptr %11, align 8, !tbaa !200
  %umax = tail call i64 @llvm.umax.i64(i64 %10, i64 1)
  br label %13

._crit_edge:                                      ; preds = %13, %3
  ret void

13:                                               ; preds = %.lr.ph, %13
  %.07 = phi i64 [ 0, %.lr.ph ], [ %21, %13 ]
  %14 = getelementptr inbounds nuw i32, ptr %6, i64 %.07
  %15 = load i32, ptr %14, align 4, !tbaa !132
  %16 = sext i32 %15 to i64
  %17 = getelementptr inbounds double, ptr %12, i64 %16
  %18 = load double, ptr %17, align 8, !tbaa !198
  %19 = fneg double %18
  %20 = getelementptr inbounds nuw double, ptr %2, i64 %.07
  store double %19, ptr %20, align 8, !tbaa !198
  %21 = add nuw i64 %.07, 1
  %exitcond.not = icmp eq i64 %21, %umax
  br i1 %exitcond.not, label %._crit_edge, label %13, !llvm.loop !205
}